#include <math.h>
#include <stdio.h>
#include <stdlib.h>
#include <string.h>

int main()
{
int a[1000],b[1000];
int i,n,k,j,t=0;
scanf("%d %d",&n,&k);
for(i=0;i<n;i++){
 scanf("%d",&a[i]);
 b[i]=a[i];
 }
for(i=0;i<n;i++){
 for(j=i+1;j<n;j++){
  if(b[j]+a[i]==k){
   printf("yes");
   t=1;
   break;
  }
 }
  if(t==1){
  break;}
 if((t==0)&&(i==n-1)){
 printf("no");
 }
}

return 0;
}